; Function Attrs: mustprogress uwtable
define void @_ZN7testing32ScopedFakeTestPartResultReporterC2ENS0_13InterceptModeEPNS_19TestPartResultArrayE(ptr noundef nonnull align 8 dereferenceable(32) initializes((0, 12), (24, 32)) %0, i32 noundef %1, ptr noundef %2) unnamed_addr #4 align 2 personality ptr @__gxx_personality_v0 {
  store ptr getelementptr inbounds nuw inrange(-16, 24) (i8, ptr @_ZTVN7testing32ScopedFakeTestPartResultReporterE, i64 16), ptr %0, align 8, !tbaa !23
  %4 = getelementptr inbounds nuw i8, ptr %0, i64 8
  store i32 %1, ptr %4, align 8, !tbaa !184
  %5 = getelementptr inbounds nuw i8, ptr %0, i64 24
  store ptr %2, ptr %5, align 8, !tbaa !188
  tail call void @_ZN7testing32ScopedFakeTestPartResultReporter4InitEv(ptr noundef nonnull align 8 dereferenceable(32) %0)
  ret void
}